target datalayout = "e-m:e-p270:32:32-p271:32:32-p272:64:64-i64:64-i128:128-f80:128-n8:16:32:64-S128"
target triple = "x86_64-pc-linux-gnu"

%struct.uv_udp_s = type { ptr, ptr, i32, ptr, [2 x ptr], %union.anon, ptr, i32, i64, i64, ptr, ptr, %struct.uv__io_s, [2 x ptr], [2 x ptr] }
%union.anon = type { [4 x ptr] }
%struct.uv__io_s = type { ptr, [2 x ptr], [2 x ptr], i32, i32, i32 }
%union.__CONST_SOCKADDR_ARG = type { ptr }
%struct.sockaddr = type { i16, [14 x i8] }

; Function Attrs: nounwind uwtable
define internal i32 @uv__set_reuse(i32 noundef %0) #0 {
  %2 = alloca i32, align 4
  %3 = alloca i32, align 4
  %4 = alloca i32, align 4
  store i32 %0, ptr %3, align 4
  store i32 1, ptr %4, align 4
  %5 = load i32, ptr %3, align 4
  %6 = call i32 @setsockopt(i32 noundef %5, i32 noundef 1, i32 noundef 2, ptr noundef %4, i32 noundef 4) #7
  %7 = icmp ne i32 %6, 0
  br i1 %7, label %8, label %12

8:                                                ; preds = %1
  %9 = call ptr @__errno_location() #8
  %10 = load i32, ptr %9, align 4
  %11 = sub nsw i32 0, %10
  store i32 %11, ptr %2, align 4
  br label %13

12:                                               ; preds = %1
  store i32 0, ptr %2, align 4
  br label %13

13:                                               ; preds = %12, %8
  %14 = load i32, ptr %2, align 4
  ret i32 %14
}

; Function Attrs: nounwind uwtable
define internal i32 @uv__set_recverr(i32 noundef %0, i16 noundef zeroext %1) #0 {
  %3 = alloca i32, align 4
  %4 = alloca i32, align 4
  %5 = alloca i16, align 2
  %6 = alloca i32, align 4
  store i32 %0, ptr %4, align 4
  store i16 %1, ptr %5, align 2
  store i32 1, ptr %6, align 4
  %7 = load i16, ptr %5, align 2
  %8 = zext i16 %7 to i32
  %9 = icmp eq i32 %8, 2
  br i1 %9, label %10, label %19

10:                                               ; preds = %2
  %11 = load i32, ptr %4, align 4
  %12 = call i32 @setsockopt(i32 noundef %11, i32 noundef 0, i32 noundef 11, ptr noundef %6, i32 noundef 4) #7
  %13 = icmp ne i32 %12, 0
  br i1 %13, label %14, label %18

14:                                               ; preds = %10
  %15 = call ptr @__errno_location() #8
  %16 = load i32, ptr %15, align 4
  %17 = sub nsw i32 0, %16
  store i32 %17, ptr %3, align 4
  br label %34

18:                                               ; preds = %10
  br label %33

19:                                               ; preds = %2
  %20 = load i16, ptr %5, align 2
  %21 = zext i16 %20 to i32
  %22 = icmp eq i32 %21, 10
  br i1 %22, label %23, label %32

23:                                               ; preds = %19
  %24 = load i32, ptr %4, align 4
  %25 = call i32 @setsockopt(i32 noundef %24, i32 noundef 41, i32 noundef 25, ptr noundef %6, i32 noundef 4) #7
  %26 = icmp ne i32 %25, 0
  br i1 %26, label %27, label %31

27:                                               ; preds = %23
  %28 = call ptr @__errno_location() #8
  %29 = load i32, ptr %28, align 4
  %30 = sub nsw i32 0, %29
  store i32 %30, ptr %3, align 4
  br label %34

31:                                               ; preds = %23
  br label %32

32:                                               ; preds = %31, %19
  br label %33

33:                                               ; preds = %32, %18
  store i32 0, ptr %3, align 4
  br label %34

34:                                               ; preds = %33, %27, %14
  %35 = load i32, ptr %3, align 4
  ret i32 %35
}

; Function Attrs: nounwind uwtable
define dso_local i32 @uv__udp_bind(ptr noundef %0, ptr noundef %1, i32 noundef %2, i32 noundef %3) #0 {
  %5 = alloca i32, align 4
  %6 = alloca ptr, align 8
  %7 = alloca ptr, align 8
  %8 = alloca i32, align 4
  %9 = alloca i32, align 4
  %10 = alloca i32, align 4
  %11 = alloca i32, align 4
  %12 = alloca i32, align 4
  %13 = alloca %union.__CONST_SOCKADDR_ARG, align 8
  store ptr %0, ptr %6, align 8
  store ptr %1, ptr %7, align 8
  store i32 %2, ptr %8, align 4
  store i32 %3, ptr %9, align 4
  %14 = load i32, ptr %9, align 4
  %15 = and i32 %14, -38
  %16 = icmp ne i32 %15, 0
  br i1 %16, label %17, label %18

17:                                               ; preds = %4
  store i32 -22, ptr %5, align 4
  br label %127

18:                                               ; preds = %4
  %19 = load i32, ptr %9, align 4
  %20 = and i32 %19, 1
  %21 = icmp ne i32 %20, 0
  br i1 %21, label %22, label %29

22:                                               ; preds = %18
  %23 = load ptr, ptr %7, align 8
  %24 = getelementptr inbounds %struct.sockaddr, ptr %23, i32 0, i32 0
  %25 = load i16, ptr %24, align 2
  %26 = zext i16 %25 to i32
  %27 = icmp ne i32 %26, 10
  br i1 %27, label %28, label %29

28:                                               ; preds = %22
  store i32 -22, ptr %5, align 4
  br label %127

29:                                               ; preds = %22, %18
  %30 = load ptr, ptr %6, align 8
  %31 = getelementptr inbounds %struct.uv_udp_s, ptr %30, i32 0, i32 12
  %32 = getelementptr inbounds %struct.uv__io_s, ptr %31, i32 0, i32 5
  %33 = load i32, ptr %32, align 8
  store i32 %33, ptr %12, align 4
  %34 = load i32, ptr %12, align 4
  %35 = icmp eq i32 %34, -1
  br i1 %35, label %36, label %52

36:                                               ; preds = %29
  %37 = load ptr, ptr %7, align 8
  %38 = getelementptr inbounds %struct.sockaddr, ptr %37, i32 0, i32 0
  %39 = load i16, ptr %38, align 2
  %40 = zext i16 %39 to i32
  %41 = call i32 @uv__socket(i32 noundef %40, i32 noundef 2, i32 noundef 0)
  store i32 %41, ptr %10, align 4
  %42 = load i32, ptr %10, align 4
  %43 = icmp slt i32 %42, 0
  br i1 %43, label %44, label %46

44:                                               ; preds = %36
  %45 = load i32, ptr %10, align 4
  store i32 %45, ptr %5, align 4
  br label %127

46:                                               ; preds = %36
  %47 = load i32, ptr %10, align 4
  store i32 %47, ptr %12, align 4
  %48 = load i32, ptr %12, align 4
  %49 = load ptr, ptr %6, align 8
  %50 = getelementptr inbounds %struct.uv_udp_s, ptr %49, i32 0, i32 12
  %51 = getelementptr inbounds %struct.uv__io_s, ptr %50, i32 0, i32 5
  store i32 %48, ptr %51, align 8
  br label %52

52:                                               ; preds = %46, %29
  %53 = load i32, ptr %9, align 4
  %54 = and i32 %53, 32
  %55 = icmp ne i32 %54, 0
  br i1 %55, label %56, label %67

56:                                               ; preds = %52
  %57 = load i32, ptr %12, align 4
  %58 = load ptr, ptr %7, align 8
  %59 = getelementptr inbounds %struct.sockaddr, ptr %58, i32 0, i32 0
  %60 = load i16, ptr %59, align 2
  %61 = call i32 @uv__set_recverr(i32 noundef %57, i16 noundef zeroext %60)
  store i32 %61, ptr %10, align 4
  %62 = load i32, ptr %10, align 4
  %63 = icmp ne i32 %62, 0
  br i1 %63, label %64, label %66

64:                                               ; preds = %56
  %65 = load i32, ptr %10, align 4
  store i32 %65, ptr %5, align 4
  br label %127

66:                                               ; preds = %56
  br label %67

67:                                               ; preds = %66, %52
  %68 = load i32, ptr %9, align 4
  %69 = and i32 %68, 4
  %70 = icmp ne i32 %69, 0
  br i1 %70, label %71, label %79

71:                                               ; preds = %67
  %72 = load i32, ptr %12, align 4
  %73 = call i32 @uv__set_reuse(i32 noundef %72)
  store i32 %73, ptr %10, align 4
  %74 = load i32, ptr %10, align 4
  %75 = icmp ne i32 %74, 0
  br i1 %75, label %76, label %78

76:                                               ; preds = %71
  %77 = load i32, ptr %10, align 4
  store i32 %77, ptr %5, align 4
  br label %127

78:                                               ; preds = %71
  br label %79

79:                                               ; preds = %78, %67
  %80 = load i32, ptr %9, align 4
  %81 = and i32 %80, 1
  %82 = icmp ne i32 %81, 0
  br i1 %82, label %83, label %93

83:                                               ; preds = %79
  store i32 1, ptr %11, align 4
  %84 = load i32, ptr %12, align 4
  %85 = call i32 @setsockopt(i32 noundef %84, i32 noundef 41, i32 noundef 26, ptr noundef %11, i32 noundef 4) #7
  %86 = icmp eq i32 %85, -1
  br i1 %86, label %87, label %92

87:                                               ; preds = %83
  %88 = call ptr @__errno_location() #8
  %89 = load i32, ptr %88, align 4
  %90 = sub nsw i32 0, %89
  store i32 %90, ptr %10, align 4
  %91 = load i32, ptr %10, align 4
  store i32 %91, ptr %5, align 4
  br label %127

92:                                               ; preds = %83
  br label %93

93:                                               ; preds = %92, %79
  %94 = load i32, ptr %12, align 4
  %95 = load ptr, ptr %7, align 8
  store ptr %95, ptr %13, align 8
  %96 = load i32, ptr %8, align 4
  %97 = getelementptr inbounds %union.__CONST_SOCKADDR_ARG, ptr %13, i32 0, i32 0
  %98 = load ptr, ptr %97, align 8
  %99 = call i32 @bind(i32 noundef %94, ptr %98, i32 noundef %96) #7
  %100 = icmp ne i32 %99, 0
  br i1 %100, label %101, label %111

101:                                              ; preds = %93
  %102 = call ptr @__errno_location() #8
  %103 = load i32, ptr %102, align 4
  %104 = sub nsw i32 0, %103
  store i32 %104, ptr %10, align 4
  %105 = call ptr @__errno_location() #8
  %106 = load i32, ptr %105, align 4
  %107 = icmp eq i32 %106, 97
  br i1 %107, label %108, label %109

108:                                              ; preds = %101
  store i32 -22, ptr %10, align 4
  br label %109

109:                                              ; preds = %108, %101
  %110 = load i32, ptr %10, align 4
  store i32 %110, ptr %5, align 4
  br label %127

111:                                              ; preds = %93
  %112 = load ptr, ptr %7, align 8
  %113 = getelementptr inbounds %struct.sockaddr, ptr %112, i32 0, i32 0
  %114 = load i16, ptr %113, align 2
  %115 = zext i16 %114 to i32
  %116 = icmp eq i32 %115, 10
  br i1 %116, label %117, label %122

117:                                              ; preds = %111
  %118 = load ptr, ptr %6, align 8
  %119 = getelementptr inbounds %struct.uv_udp_s, ptr %118, i32 0, i32 7
  %120 = load i32, ptr %119, align 8
  %121 = or i32 %120, 4194304
  store i32 %121, ptr %119, align 8
  br label %122

122:                                              ; preds = %117, %111
  %123 = load ptr, ptr %6, align 8
  %124 = getelementptr inbounds %struct.uv_udp_s, ptr %123, i32 0, i32 7
  %125 = load i32, ptr %124, align 8
  %126 = or i32 %125, 8192
  store i32 %126, ptr %124, align 8
  store i32 0, ptr %5, align 4
  br label %127

127:                                              ; preds = %122, %109, %87, %76, %64, %44, %28, %17
  %128 = load i32, ptr %5, align 4
  ret i32 %128
}