; Function Attrs: nounwind uwtable
define dso_local i32 @uv__udp_bind(ptr noundef captures(none) %0, ptr noundef %1, i32 noundef %2, i32 noundef %3) local_unnamed_addr #0 {
  %5 = alloca i32, align 4
  %6 = alloca i32, align 4
  %7 = alloca i32, align 4
  %8 = and i32 %3, -38
  %.not = icmp eq i32 %8, 0
  br i1 %.not, label %9, label %63

9:                                                ; preds = %4
  %10 = and i32 %3, 1
  %.not35 = icmp eq i32 %10, 0
  br i1 %.not35, label %13, label %11

11:                                               ; preds = %9
  %12 = load i16, ptr %1, align 2
  %.not36 = icmp eq i16 %12, 10
  br i1 %.not36, label %13, label %63

13:                                               ; preds = %11, %9
  %14 = getelementptr inbounds nuw i8, ptr %0, i64 176
  %15 = load i32, ptr %14, align 8
  %16 = icmp eq i32 %15, -1
  br i1 %16, label %17, label %23

17:                                               ; preds = %13
  %18 = load i16, ptr %1, align 2
  %19 = zext i16 %18 to i32
  %20 = tail call i32 @uv__socket(i32 noundef %19, i32 noundef 2, i32 noundef 0) #9
  %21 = icmp slt i32 %20, 0
  br i1 %21, label %63, label %22

22:                                               ; preds = %17
  store i32 %20, ptr %14, align 8
  br label %23

23:                                               ; preds = %22, %13
  %.030 = phi i32 [ %20, %22 ], [ %15, %13 ]
  %.not37 = icmp samesign ult i32 %3, 32
  br i1 %.not37, label %33, label %24

24:                                               ; preds = %23
  %25 = load i16, ptr %1, align 2
  call void @llvm.lifetime.start.p0(i64 4, ptr nonnull %6)
  store i32 1, ptr %6, align 4
  switch i16 %25, label %uv__set_recverr.exit.thread [
    i16 2, label %26
    i16 10, label %28
  ]

26:                                               ; preds = %24
  %27 = call i32 @setsockopt(i32 noundef range(i32 0, -1) %.030, i32 noundef 0, i32 noundef 11, ptr noundef nonnull %6, i32 noundef 4) #9
  %.not6.i = icmp eq i32 %27, 0
  br i1 %.not6.i, label %uv__set_recverr.exit.thread, label %uv__set_recverr.exit

28:                                               ; preds = %24
  %29 = call i32 @setsockopt(i32 noundef range(i32 0, -1) %.030, i32 noundef 41, i32 noundef 25, ptr noundef nonnull %6, i32 noundef 4) #9
  %.not.i = icmp eq i32 %29, 0
  br i1 %.not.i, label %uv__set_recverr.exit.thread, label %uv__set_recverr.exit

uv__set_recverr.exit.thread:                      ; preds = %24, %28, %26
  call void @llvm.lifetime.end.p0(i64 4, ptr nonnull %6)
  br label %33

uv__set_recverr.exit:                             ; preds = %26, %28
  %30 = tail call ptr @__errno_location() #10
  %31 = load i32, ptr %30, align 4
  %32 = sub nsw i32 0, %31
  call void @llvm.lifetime.end.p0(i64 4, ptr nonnull %6)
  %.not38 = icmp eq i32 %31, 0
  br i1 %.not38, label %33, label %63

33:                                               ; preds = %uv__set_recverr.exit.thread, %uv__set_recverr.exit, %23
  %34 = and i32 %3, 4
  %.not39 = icmp eq i32 %34, 0
  br i1 %.not39, label %40, label %35

35:                                               ; preds = %33
  call void @llvm.lifetime.start.p0(i64 4, ptr nonnull %5)
  store i32 1, ptr %5, align 4
  %36 = call i32 @setsockopt(i32 noundef %.030, i32 noundef 1, i32 noundef 2, ptr noundef nonnull %5, i32 noundef 4) #9
  %.not.i42 = icmp eq i32 %36, 0
  br i1 %.not.i42, label %uv__set_reuse.exit.thread, label %uv__set_reuse.exit

uv__set_reuse.exit.thread:                        ; preds = %35
  call void @llvm.lifetime.end.p0(i64 4, ptr nonnull %5)
  br label %40

uv__set_reuse.exit:                               ; preds = %35
  %37 = tail call ptr @__errno_location() #10
  %38 = load i32, ptr %37, align 4
  %39 = sub nsw i32 0, %38
  call void @llvm.lifetime.end.p0(i64 4, ptr nonnull %5)
  %.not40 = icmp eq i32 %38, 0
  br i1 %.not40, label %40, label %63

40:                                               ; preds = %uv__set_reuse.exit.thread, %uv__set_reuse.exit, %33
  br i1 %.not35, label %48, label %41

41:                                               ; preds = %40
  store i32 1, ptr %7, align 4
  %42 = call i32 @setsockopt(i32 noundef %.030, i32 noundef 41, i32 noundef 26, ptr noundef nonnull %7, i32 noundef 4) #9
  %43 = icmp eq i32 %42, -1
  br i1 %43, label %44, label %48

44:                                               ; preds = %41
  %45 = tail call ptr @__errno_location() #10
  %46 = load i32, ptr %45, align 4
  %47 = sub nsw i32 0, %46
  br label %63

48:                                               ; preds = %41, %40
  %49 = call i32 @bind(i32 noundef %.030, ptr %1, i32 noundef %2) #9
  %.not41 = icmp eq i32 %49, 0
  br i1 %.not41, label %._crit_edge, label %50

50:                                               ; preds = %48
  %51 = tail call ptr @__errno_location() #10
  %52 = load i32, ptr %51, align 4
  %53 = sub nsw i32 0, %52
  %54 = icmp eq i32 %52, 97
  %spec.store.select = select i1 %54, i32 -22, i32 %53
  br label %63

._crit_edge:                                      ; preds = %48
  %55 = load i16, ptr %1, align 2
  %56 = icmp eq i16 %55, 10
  %57 = getelementptr inbounds nuw i8, ptr %0, i64 88
  %58 = load i32, ptr %57, align 8
  %59 = or i32 %58, 4194304
  %60 = select i1 %56, i32 %59, i32 %58
  %61 = getelementptr inbounds nuw i8, ptr %0, i64 88
  %62 = or i32 %60, 8192
  store i32 %62, ptr %61, align 8
  br label %63

63:                                               ; preds = %uv__set_reuse.exit, %uv__set_recverr.exit, %17, %11, %4, %._crit_edge, %50, %44
  %.0 = phi i32 [ %47, %44 ], [ %spec.store.select, %50 ], [ 0, %._crit_edge ], [ -22, %4 ], [ -22, %11 ], [ %20, %17 ], [ %32, %uv__set_recverr.exit ], [ %39, %uv__set_reuse.exit ]
  ret i32 %.0
}